; Function Attrs: mustprogress uwtable
define internal fastcc void @_ZL16setMatchNotFoundP13UStringSearchR10UErrorCode(ptr nocapture noundef readonly %strsrch, ptr nocapture noundef nonnull align 4 dereferenceable(4) %status) unnamed_addr #0 {
entry:
  %localStatus = alloca i32, align 4
  store i32 0, ptr %localStatus, align 4
  %0 = load ptr, ptr %strsrch, align 8
  %matchedIndex = getelementptr inbounds i8, ptr %0, i64 32
  store i32 -1, ptr %matchedIndex, align 8
  %1 = load ptr, ptr %strsrch, align 8
  %matchedLength = getelementptr inbounds i8, ptr %1, i64 36
  store i32 0, ptr %matchedLength, align 4
  %2 = load ptr, ptr %strsrch, align 8
  %isForwardSearching = getelementptr inbounds i8, ptr %2, i64 40
  %3 = load i8, ptr %isForwardSearching, align 8
  %tobool.not = icmp eq i8 %3, 0
  %textIter4 = getelementptr inbounds i8, ptr %strsrch, i64 3144
  %4 = load ptr, ptr %textIter4, align 8
  br i1 %tobool.not, label %if.end, label %if.then

if.then:                                          ; preds = %entry
  %textLength = getelementptr inbounds i8, ptr %2, i64 8
  %5 = load i32, ptr %textLength, align 8
  br label %if.end

if.end:                                           ; preds = %entry, %if.then
  %.sink = phi i32 [ %5, %if.then ], [ 0, %entry ]
  call void @ucol_setOffset_75(ptr noundef %4, i32 noundef %.sink, ptr noundef nonnull %localStatus)
  %6 = load i32, ptr %status, align 4
  %cmp.i = icmp sgt i32 %6, 0
  br i1 %cmp.i, label %if.end9, label %land.lhs.true

land.lhs.true:                                    ; preds = %if.end
  %7 = load i32, ptr %localStatus, align 4
  %cmp.i7 = icmp slt i32 %7, 1
  br i1 %cmp.i7, label %if.end9, label %if.then8

if.then8:                                         ; preds = %land.lhs.true
  store i32 %7, ptr %status, align 4
  br label %if.end9

if.end9:                                          ; preds = %if.then8, %land.lhs.true, %if.end
  ret void
}